; Function Attrs: mustprogress nofree norecurse nosync nounwind willreturn memory(write, argmem: readwrite, inaccessiblemem: none) uwtable
define internal void @_ZL21ures_loc_resetLocalesP12UEnumerationP10UErrorCode(ptr nocapture noundef readonly %en, ptr nocapture readnone %0) #16 {
entry:
  %context = getelementptr inbounds i8, ptr %en, i64 8
  %1 = load ptr, ptr %context, align 8
  %cmp.i = icmp eq ptr %1, null
  br i1 %cmp.i, label %ures_resetIterator_75.exit, label %if.end.i

if.end.i:                                         ; preds = %entry
  %fIndex.i = getelementptr inbounds i8, ptr %1, i64 124
  store i32 -1, ptr %fIndex.i, align 4
  br label %ures_resetIterator_75.exit

ures_resetIterator_75.exit:                       ; preds = %entry, %if.end.i
  ret void
}